; Function Attrs: nounwind uwtable
define hidden void @mi_collect_reduce(i64 noundef %0) local_unnamed_addr #4 {
  tail call void @mi_collect(i1 noundef zeroext true) #11
  %2 = tail call ptr @mi_heap_get_default() #11
  %3 = load ptr, ptr %2, align 8, !tbaa !67
  %4 = lshr i64 %0, 25
  %5 = icmp ult i64 %0, 33554432
  br i1 %5, label %6, label %8

6:                                                ; preds = %1
  %7 = tail call i64 @mi_option_get_clamp(i32 noundef 35, i64 noundef 1, i64 noundef 1024) #11
  br label %8

8:                                                ; preds = %6, %1
  %.0 = phi i64 [ %7, %6 ], [ %4, %1 ]
  %9 = getelementptr inbounds nuw i8, ptr %3, i64 32
  tail call fastcc void @mi_segments_try_abandon_to_target(ptr noundef nonnull %2, i64 noundef %.0, ptr noundef nonnull %9) #10
  ret void
}